Certificate:
    Data:
        Version: 3 (0x2)
        Serial Number: 11 (0xb)
        Signature Algorithm: md5WithRSAEncryption
        Issuer: C=FR, ST=Midi-Pyrenees, L=Pic-du-Midi, O=Observateurs Associes, OU=Autorite Certification OA, CN=David Romeuf/emailAddress=David.Romeuf@laposte.net
        Validity
            Not Before: May 23 06:32:18 2006 GMT
            Not After : May 22 06:32:18 2011 GMT
        Subject: C=FR, ST=Midi-Pyrenees, O=Observateurs Associes, OU=IMG3, CN=David Romeuf/emailAddress=David.Romeuf@laposte.net
        Subject Public Key Info:
            Public Key Algorithm: rsaEncryption
            RSA Public Key: (1024 bit)
                Modulus (1024 bit):
                    00:bc:c1:95:41:7b:7e:0b:7c:43:3b:ab:c1:29:26:
                    d7:5b:40:c9:e3:6d:15:06:7d:4a:49:c7:21:1a:92:
                    5d:60:7d:73:c9:8d:df:17:0a:fa:fe:17:50:38:16:
                    59:30:83:c1:17:87:dc:b0:75:38:bb:93:30:52:15:
                    2b:5e:2a:12:d0:c7:d6:83:6a:90:c0:72:84:bd:d5:
                    f8:56:79:e5:25:77:fa:69:f5:b5:cb:05:07:5b:e3:
                    2d:fe:a9:c2:c9:9f:df:58:64:a8:c4:55:a8:8d:f5:
                    46:50:93:1c:09:52:f1:0a:92:c5:02:7e:21:ee:66:
                    38:7f:eb:6c:48:7a:33:5d:9f
                Exponent: 65537 (0x10001)
        X509v3 extensions:
            X509v3 Basic Constraints: 
                CA:FALSE
            Netscape Comment: 
                OpenSSL Generated Certificate
            X509v3 Subject Key Identifier: 
                84:2F:C8:D1:42:52:16:A2:29:B3:11:EA:68:AA:37:C2:7C:B2:D0:CE
            X509v3 Authority Key Identifier: 
                keyid:C3:4E:3F:61:80:E1:D1:55:C3:1A:42:4F:AD:69:21:75:1F:19:CD:15
                DirName:/C=FR/ST=Midi-Pyrenees/L=Pic-du-Midi/O=Observateurs Associes/OU=Autorite Certification OA/CN=David Romeuf/emailAddress=David.Romeuf@laposte.net
                serial:C0:43:E4:48:60:60:C7:1C

    Signature Algorithm: md5WithRSAEncryption
        2c:03:37:3f:e6:75:0c:2d:a9:03:06:a4:96:00:54:6b:6f:32:
        83:67:42:9b:b7:f3:9e:14:27:d6:0a:aa:7b:23:d0:8b:07:de:
        da:3f:e9:96:65:7b:80:a0:b3:48:3e:07:1b:c5:54:cd:0d:42:
        2b:a7:f0:dc:dd:7f:63:86:14:46:4c:fd:c6:dc:39:5f:10:a9:
        54:55:0f:f6:38:26:09:72:a5:ee:e6:ef:d4:99:fd:23:79:48:
        f1:10:3c:f9:18:a9:80:c8:a8:c8:b3:db:c0:bb:a7:7f:67:af:
        cf:be:7a:67:06:e8:e3:de:d2:19:1f:89:a2:cd:02:8e:ca:af:
        a5:cb
-----BEGIN CERTIFICATE-----
MIIEIDCCA4mgAwIBAgIBCzANBgkqhkiG9w0BAQQFADCBvzELMAkGA1UEBhMCRlIx
FjAUBgNVBAgTDU1pZGktUHlyZW5lZXMxFDASBgNVBAcTC1BpYy1kdS1NaWRpMR4w
HAYDVQQKExVPYnNlcnZhdGV1cnMgQXNzb2NpZXMxIjAgBgNVBAsTGUF1dG9yaXRl
IENlcnRpZmljYXRpb24gT0ExFTATBgNVBAMTDERhdmlkIFJvbWV1ZjEnMCUGCSqG
SIb3DQEJARYYRGF2aWQuUm9tZXVmQGxhcG9zdGUubmV0MB4XDTA2MDUyMzA2MzIx
OFoXDTExMDUyMjA2MzIxOFowgZQxCzAJBgNVBAYTAkZSMRYwFAYDVQQIEw1NaWRp
LVB5cmVuZWVzMR4wHAYDVQQKExVPYnNlcnZhdGV1cnMgQXNzb2NpZXMxDTALBgNV
BAsTBElNRzMxFTATBgNVBAMTDERhdmlkIFJvbWV1ZjEnMCUGCSqGSIb3DQEJARYY
RGF2aWQuUm9tZXVmQGxhcG9zdGUubmV0MIGfMA0GCSqGSIb3DQEBAQUAA4GNADCB
iQKBgQC8wZVBe34LfEM7q8EpJtdbQMnjbRUGfUpJxyEakl1gfXPJjd8XCvr+F1A4
Flkwg8EXh9ywdTi7kzBSFSteKhLQx9aDapDAcoS91fhWeeUld/pp9bXLBQdb4y3+
qcLJn99YZKjEVaiN9UZQkxwJUvEKksUCfiHuZjh/62xIejNdnwIDAQABo4IBUzCC
AU8wCQYDVR0TBAIwADAsBglghkgBhvhCAQ0EHxYdT3BlblNTTCBHZW5lcmF0ZWQg
Q2VydGlmaWNhdGUwHQYDVR0OBBYEFIQvyNFCUhaiKbMR6miqN8J8stDOMIH0BgNV
HSMEgewwgemAFMNOP2GA4dFVwxpCT61pIXUfGc0VoYHFpIHCMIG/MQswCQYDVQQG
EwJGUjEWMBQGA1UECBMNTWlkaS1QeXJlbmVlczEUMBIGA1UEBxMLUGljLWR1LU1p
ZGkxHjAcBgNVBAoTFU9ic2VydmF0ZXVycyBBc3NvY2llczEiMCAGA1UECxMZQXV0
b3JpdGUgQ2VydGlmaWNhdGlvbiBPQTEVMBMGA1UEAxMMRGF2aWQgUm9tZXVmMScw
JQYJKoZIhvcNAQkBFhhEYXZpZC5Sb21ldWZAbGFwb3N0ZS5uZXSCCQDAQ+RIYGDH
HDANBgkqhkiG9w0BAQQFAAOBgQAsAzc/5nUMLakDBqSWAFRrbzKDZ0Kbt/OeFCfW
Cqp7I9CLB97aP+mWZXuAoLNIPgcbxVTNDUIrp/Dc3X9jhhRGTP3G3DlfEKlUVQ/2
OCYJcqXu5u/Umf0jeUjxEDz5GKmAyKjIs9vAu6d/Z6/PvnpnBujj3tIZH4mizQKO
yq+lyw==
-----END CERTIFICATE-----
