Certificate:
    Data:
        Version: 3 (0x2)
        Serial Number: 9 (0x9)
        Signature Algorithm: md5WithRSAEncryption
        Issuer: C=FR, ST=Midi-Pyrenees, L=Pic-du-Midi, O=Observateurs Associes, OU=Autorite Certification OA, CN=David Romeuf/emailAddress=David.Romeuf@laposte.net
        Validity
            Not Before: May 23 06:30:53 2006 GMT
            Not After : May 22 06:30:53 2011 GMT
        Subject: C=FR, ST=Midi-Pyrenees, O=Observateurs Associes, OU=IMG1, CN=David Romeuf/emailAddress=David.Romeuf@laposte.net
        Subject Public Key Info:
            Public Key Algorithm: rsaEncryption
            RSA Public Key: (1024 bit)
                Modulus (1024 bit):
                    00:b8:ce:bf:50:41:e4:76:73:8b:e6:c0:4a:59:54:
                    70:a3:20:a4:8d:15:6d:9c:27:57:5d:1f:ad:4e:8d:
                    eb:db:68:70:e6:c3:0e:fd:f1:f1:1b:89:5d:94:3e:
                    f8:c5:80:9f:21:c8:11:2c:0c:b6:b5:d2:94:89:0a:
                    26:a3:18:8b:54:7d:b2:e6:ba:60:5f:61:cb:c3:11:
                    cd:8e:1e:bb:69:75:d8:85:b6:1a:36:ca:3a:cf:2f:
                    46:0f:2b:42:54:0e:ce:4a:ef:9f:ec:ac:3a:3d:0b:
                    63:69:dd:21:02:61:33:ad:a3:f6:9f:b4:03:da:d0:
                    38:a8:e8:3c:c9:38:c2:1a:bf
                Exponent: 65537 (0x10001)
        X509v3 extensions:
            X509v3 Basic Constraints: 
                CA:FALSE
            Netscape Comment: 
                OpenSSL Generated Certificate
            X509v3 Subject Key Identifier: 
                3A:F7:50:37:20:10:C0:49:9E:E2:D0:87:85:9B:0E:D0:B8:E1:DD:18
            X509v3 Authority Key Identifier: 
                keyid:C3:4E:3F:61:80:E1:D1:55:C3:1A:42:4F:AD:69:21:75:1F:19:CD:15
                DirName:/C=FR/ST=Midi-Pyrenees/L=Pic-du-Midi/O=Observateurs Associes/OU=Autorite Certification OA/CN=David Romeuf/emailAddress=David.Romeuf@laposte.net
                serial:C0:43:E4:48:60:60:C7:1C

    Signature Algorithm: md5WithRSAEncryption
        3f:35:7b:b3:b5:4a:4c:e4:02:0f:ea:4a:7d:ae:53:2f:ad:22:
        99:fe:b1:a8:98:49:87:ab:8f:91:ef:76:4c:99:20:31:0b:b7:
        c2:ea:7b:09:98:66:15:a0:85:2e:da:47:a8:4e:c8:81:98:a5:
        1e:b0:e4:45:3b:62:4e:49:1a:e3:3e:1c:ae:e7:ff:d5:2d:9a:
        e3:38:58:35:a0:08:ee:05:06:95:b4:bf:ee:90:af:e8:e3:43:
        b7:91:42:86:75:a9:57:d9:7d:51:00:cc:4f:d0:85:55:96:76:
        7a:d6:27:45:17:87:c5:dd:ee:a9:d3:15:41:10:78:18:ec:4e:
        3b:34
-----BEGIN CERTIFICATE-----
MIIEIDCCA4mgAwIBAgIBCTANBgkqhkiG9w0BAQQFADCBvzELMAkGA1UEBhMCRlIx
FjAUBgNVBAgTDU1pZGktUHlyZW5lZXMxFDASBgNVBAcTC1BpYy1kdS1NaWRpMR4w
HAYDVQQKExVPYnNlcnZhdGV1cnMgQXNzb2NpZXMxIjAgBgNVBAsTGUF1dG9yaXRl
IENlcnRpZmljYXRpb24gT0ExFTATBgNVBAMTDERhdmlkIFJvbWV1ZjEnMCUGCSqG
SIb3DQEJARYYRGF2aWQuUm9tZXVmQGxhcG9zdGUubmV0MB4XDTA2MDUyMzA2MzA1
M1oXDTExMDUyMjA2MzA1M1owgZQxCzAJBgNVBAYTAkZSMRYwFAYDVQQIEw1NaWRp
LVB5cmVuZWVzMR4wHAYDVQQKExVPYnNlcnZhdGV1cnMgQXNzb2NpZXMxDTALBgNV
BAsTBElNRzExFTATBgNVBAMTDERhdmlkIFJvbWV1ZjEnMCUGCSqGSIb3DQEJARYY
RGF2aWQuUm9tZXVmQGxhcG9zdGUubmV0MIGfMA0GCSqGSIb3DQEBAQUAA4GNADCB
iQKBgQC4zr9QQeR2c4vmwEpZVHCjIKSNFW2cJ1ddH61OjevbaHDmww798fEbiV2U
PvjFgJ8hyBEsDLa10pSJCiajGItUfbLmumBfYcvDEc2OHrtpddiFtho2yjrPL0YP
K0JUDs5K75/srDo9C2Np3SECYTOto/aftAPa0Dio6DzJOMIavwIDAQABo4IBUzCC
AU8wCQYDVR0TBAIwADAsBglghkgBhvhCAQ0EHxYdT3BlblNTTCBHZW5lcmF0ZWQg
Q2VydGlmaWNhdGUwHQYDVR0OBBYEFDr3UDcgEMBJnuLQh4WbDtC44d0YMIH0BgNV
HSMEgewwgemAFMNOP2GA4dFVwxpCT61pIXUfGc0VoYHFpIHCMIG/MQswCQYDVQQG
EwJGUjEWMBQGA1UECBMNTWlkaS1QeXJlbmVlczEUMBIGA1UEBxMLUGljLWR1LU1p
ZGkxHjAcBgNVBAoTFU9ic2VydmF0ZXVycyBBc3NvY2llczEiMCAGA1UECxMZQXV0
b3JpdGUgQ2VydGlmaWNhdGlvbiBPQTEVMBMGA1UEAxMMRGF2aWQgUm9tZXVmMScw
JQYJKoZIhvcNAQkBFhhEYXZpZC5Sb21ldWZAbGFwb3N0ZS5uZXSCCQDAQ+RIYGDH
HDANBgkqhkiG9w0BAQQFAAOBgQA/NXuztUpM5AIP6kp9rlMvrSKZ/rGomEmHq4+R
73ZMmSAxC7fC6nsJmGYVoIUu2keoTsiBmKUesORFO2JOSRrjPhyu5//VLZrjOFg1
oAjuBQaVtL/ukK/o40O3kUKGdalX2X1RAMxP0IVVlnZ61idFF4fF3e6p0xVBEHgY
7E47NA==
-----END CERTIFICATE-----
