Certificate:
    Data:
        Version: 3 (0x2)
        Serial Number: 12 (0xc)
        Signature Algorithm: md5WithRSAEncryption
        Issuer: C=FR, ST=Midi-Pyrenees, L=Pic-du-Midi, O=Observateurs Associes, OU=Autorite Certification OA, CN=David Romeuf/emailAddress=David.Romeuf@laposte.net
        Validity
            Not Before: May 23 06:32:52 2006 GMT
            Not After : May 22 06:32:52 2011 GMT
        Subject: C=FR, ST=Midi-Pyrenees, O=Observateurs Associes, OU=IMG4, CN=David Romeuf/emailAddress=David.Romeuf@laposte.net
        Subject Public Key Info:
            Public Key Algorithm: rsaEncryption
            RSA Public Key: (1024 bit)
                Modulus (1024 bit):
                    00:be:a8:1b:43:97:e6:f0:9c:7d:ac:66:9c:19:b8:
                    1c:f3:22:7a:c3:db:8f:6b:8d:da:da:7d:07:7d:b3:
                    79:5d:de:e8:96:07:d8:5a:c8:a5:5b:39:8d:e2:41:
                    7f:3e:ac:e3:6b:85:e8:68:40:d1:7a:f0:75:e2:97:
                    57:8d:05:c9:c8:e5:de:d4:98:99:77:c0:16:ee:c8:
                    f5:af:b5:6f:49:bb:f0:83:67:17:ae:ba:ad:f0:3f:
                    10:76:46:9a:3b:cb:85:a1:68:3a:bb:62:f1:9a:02:
                    7d:18:24:37:56:66:d5:f1:4f:62:9c:4c:f2:ec:0b:
                    4b:de:d9:02:07:3f:35:b0:f9
                Exponent: 65537 (0x10001)
        X509v3 extensions:
            X509v3 Basic Constraints: 
                CA:FALSE
            Netscape Comment: 
                OpenSSL Generated Certificate
            X509v3 Subject Key Identifier: 
                BA:9F:01:BA:72:45:B2:46:A5:77:66:2A:6A:E7:91:CE:37:9B:24:C3
            X509v3 Authority Key Identifier: 
                keyid:C3:4E:3F:61:80:E1:D1:55:C3:1A:42:4F:AD:69:21:75:1F:19:CD:15
                DirName:/C=FR/ST=Midi-Pyrenees/L=Pic-du-Midi/O=Observateurs Associes/OU=Autorite Certification OA/CN=David Romeuf/emailAddress=David.Romeuf@laposte.net
                serial:C0:43:E4:48:60:60:C7:1C

    Signature Algorithm: md5WithRSAEncryption
        c9:cf:fb:cb:d6:f3:2f:96:d6:d1:8d:fc:63:59:5a:bd:1f:85:
        2b:09:a3:98:7f:54:b1:ce:17:18:46:85:66:14:1b:fb:59:89:
        94:75:0c:c8:c0:8a:29:4f:cd:5b:94:f0:46:19:47:ae:ef:9c:
        e5:9b:f1:1f:7f:92:1a:1f:ac:79:7a:81:1c:0b:fc:c8:31:2c:
        3d:59:e6:aa:0a:67:69:77:ef:23:d7:5f:7b:32:12:2b:35:d1:
        b2:3a:88:45:f1:4b:df:dd:a5:cd:89:15:84:f1:34:5c:42:fe:
        c2:8f:48:17:1f:84:34:b8:a4:a5:d8:09:d1:e9:28:56:b9:8e:
        81:37
-----BEGIN CERTIFICATE-----
MIIEIDCCA4mgAwIBAgIBDDANBgkqhkiG9w0BAQQFADCBvzELMAkGA1UEBhMCRlIx
FjAUBgNVBAgTDU1pZGktUHlyZW5lZXMxFDASBgNVBAcTC1BpYy1kdS1NaWRpMR4w
HAYDVQQKExVPYnNlcnZhdGV1cnMgQXNzb2NpZXMxIjAgBgNVBAsTGUF1dG9yaXRl
IENlcnRpZmljYXRpb24gT0ExFTATBgNVBAMTDERhdmlkIFJvbWV1ZjEnMCUGCSqG
SIb3DQEJARYYRGF2aWQuUm9tZXVmQGxhcG9zdGUubmV0MB4XDTA2MDUyMzA2MzI1
MloXDTExMDUyMjA2MzI1MlowgZQxCzAJBgNVBAYTAkZSMRYwFAYDVQQIEw1NaWRp
LVB5cmVuZWVzMR4wHAYDVQQKExVPYnNlcnZhdGV1cnMgQXNzb2NpZXMxDTALBgNV
BAsTBElNRzQxFTATBgNVBAMTDERhdmlkIFJvbWV1ZjEnMCUGCSqGSIb3DQEJARYY
RGF2aWQuUm9tZXVmQGxhcG9zdGUubmV0MIGfMA0GCSqGSIb3DQEBAQUAA4GNADCB
iQKBgQC+qBtDl+bwnH2sZpwZuBzzInrD249rjdrafQd9s3ld3uiWB9hayKVbOY3i
QX8+rONrhehoQNF68HXil1eNBcnI5d7UmJl3wBbuyPWvtW9Ju/CDZxeuuq3wPxB2
Rpo7y4WhaDq7YvGaAn0YJDdWZtXxT2KcTPLsC0ve2QIHPzWw+QIDAQABo4IBUzCC
AU8wCQYDVR0TBAIwADAsBglghkgBhvhCAQ0EHxYdT3BlblNTTCBHZW5lcmF0ZWQg
Q2VydGlmaWNhdGUwHQYDVR0OBBYEFLqfAbpyRbJGpXdmKmrnkc43myTDMIH0BgNV
HSMEgewwgemAFMNOP2GA4dFVwxpCT61pIXUfGc0VoYHFpIHCMIG/MQswCQYDVQQG
EwJGUjEWMBQGA1UECBMNTWlkaS1QeXJlbmVlczEUMBIGA1UEBxMLUGljLWR1LU1p
ZGkxHjAcBgNVBAoTFU9ic2VydmF0ZXVycyBBc3NvY2llczEiMCAGA1UECxMZQXV0
b3JpdGUgQ2VydGlmaWNhdGlvbiBPQTEVMBMGA1UEAxMMRGF2aWQgUm9tZXVmMScw
JQYJKoZIhvcNAQkBFhhEYXZpZC5Sb21ldWZAbGFwb3N0ZS5uZXSCCQDAQ+RIYGDH
HDANBgkqhkiG9w0BAQQFAAOBgQDJz/vL1vMvltbRjfxjWVq9H4UrCaOYf1SxzhcY
RoVmFBv7WYmUdQzIwIopT81blPBGGUeu75zlm/Eff5IaH6x5eoEcC/zIMSw9Weaq
Cmdpd+8j1197MhIrNdGyOohF8Uvf3aXNiRWE8TRcQv7Cj0gXH4Q0uKSl2AnR6ShW
uY6BNw==
-----END CERTIFICATE-----
