Certificate:
    Data:
        Version: 3 (0x2)
        Serial Number: 10 (0xa)
        Signature Algorithm: md5WithRSAEncryption
        Issuer: C=FR, ST=Midi-Pyrenees, L=Pic-du-Midi, O=Observateurs Associes, OU=Autorite Certification OA, CN=David Romeuf/emailAddress=David.Romeuf@laposte.net
        Validity
            Not Before: May 23 06:31:41 2006 GMT
            Not After : May 22 06:31:41 2011 GMT
        Subject: C=FR, ST=Midi-Pyrenees, O=Observateurs Associes, OU=IMG2, CN=David Romeuf/emailAddress=David.Romeuf@laposte.net
        Subject Public Key Info:
            Public Key Algorithm: rsaEncryption
            RSA Public Key: (1024 bit)
                Modulus (1024 bit):
                    00:a2:c7:30:85:ea:e3:c6:2c:46:ba:1d:40:63:d4:
                    9d:60:b7:e8:a2:c4:dc:40:3c:de:8e:ac:5e:47:c5:
                    d7:ef:02:71:ac:b2:9e:57:93:fa:21:07:7a:39:7c:
                    64:f7:1a:8c:50:80:29:e9:af:53:06:4d:23:27:dc:
                    2f:63:30:41:95:53:d6:58:78:a7:4c:a4:4d:06:8f:
                    16:0e:ed:c6:f2:78:5f:fd:a9:42:d7:bb:9c:e6:ce:
                    d2:7a:8a:18:dc:2b:4a:71:2a:60:7c:d9:3a:23:39:
                    e8:82:90:29:04:43:c9:d0:ed:c7:77:27:0b:ec:3f:
                    b1:a2:73:73:10:8b:7d:a1:81
                Exponent: 65537 (0x10001)
        X509v3 extensions:
            X509v3 Basic Constraints: 
                CA:FALSE
            Netscape Comment: 
                OpenSSL Generated Certificate
            X509v3 Subject Key Identifier: 
                79:D5:C9:1E:76:AE:5D:3A:41:E4:70:4F:61:16:F1:6F:94:78:57:1A
            X509v3 Authority Key Identifier: 
                keyid:C3:4E:3F:61:80:E1:D1:55:C3:1A:42:4F:AD:69:21:75:1F:19:CD:15
                DirName:/C=FR/ST=Midi-Pyrenees/L=Pic-du-Midi/O=Observateurs Associes/OU=Autorite Certification OA/CN=David Romeuf/emailAddress=David.Romeuf@laposte.net
                serial:C0:43:E4:48:60:60:C7:1C

    Signature Algorithm: md5WithRSAEncryption
        b7:de:5a:10:2d:c0:17:14:cc:cd:18:21:97:66:b8:24:65:72:
        6f:26:3d:f4:26:02:e5:2a:00:ed:0b:d8:71:bc:4e:e6:6b:6a:
        2a:68:4e:82:0c:94:14:c2:75:e8:4b:77:bf:12:cc:ab:bf:fa:
        fe:fa:a5:12:f4:36:b0:7e:b9:a4:d9:cd:12:61:e3:af:77:4c:
        1c:4d:a2:3f:ca:f5:c9:c1:cb:09:57:e0:f8:0f:79:34:79:10:
        0e:1a:57:f3:e6:81:a0:44:49:e8:3e:c0:96:04:0f:d8:ca:e9:
        31:39:b6:1a:f4:d3:28:dc:7e:2c:f4:8d:a9:54:e8:f8:c1:04:
        04:0a
-----BEGIN CERTIFICATE-----
MIIEIDCCA4mgAwIBAgIBCjANBgkqhkiG9w0BAQQFADCBvzELMAkGA1UEBhMCRlIx
FjAUBgNVBAgTDU1pZGktUHlyZW5lZXMxFDASBgNVBAcTC1BpYy1kdS1NaWRpMR4w
HAYDVQQKExVPYnNlcnZhdGV1cnMgQXNzb2NpZXMxIjAgBgNVBAsTGUF1dG9yaXRl
IENlcnRpZmljYXRpb24gT0ExFTATBgNVBAMTDERhdmlkIFJvbWV1ZjEnMCUGCSqG
SIb3DQEJARYYRGF2aWQuUm9tZXVmQGxhcG9zdGUubmV0MB4XDTA2MDUyMzA2MzE0
MVoXDTExMDUyMjA2MzE0MVowgZQxCzAJBgNVBAYTAkZSMRYwFAYDVQQIEw1NaWRp
LVB5cmVuZWVzMR4wHAYDVQQKExVPYnNlcnZhdGV1cnMgQXNzb2NpZXMxDTALBgNV
BAsTBElNRzIxFTATBgNVBAMTDERhdmlkIFJvbWV1ZjEnMCUGCSqGSIb3DQEJARYY
RGF2aWQuUm9tZXVmQGxhcG9zdGUubmV0MIGfMA0GCSqGSIb3DQEBAQUAA4GNADCB
iQKBgQCixzCF6uPGLEa6HUBj1J1gt+iixNxAPN6OrF5HxdfvAnGssp5Xk/ohB3o5
fGT3GoxQgCnpr1MGTSMn3C9jMEGVU9ZYeKdMpE0GjxYO7cbyeF/9qULXu5zmztJ6
ihjcK0pxKmB82TojOeiCkCkEQ8nQ7cd3JwvsP7Gic3MQi32hgQIDAQABo4IBUzCC
AU8wCQYDVR0TBAIwADAsBglghkgBhvhCAQ0EHxYdT3BlblNTTCBHZW5lcmF0ZWQg
Q2VydGlmaWNhdGUwHQYDVR0OBBYEFHnVyR52rl06QeRwT2EW8W+UeFcaMIH0BgNV
HSMEgewwgemAFMNOP2GA4dFVwxpCT61pIXUfGc0VoYHFpIHCMIG/MQswCQYDVQQG
EwJGUjEWMBQGA1UECBMNTWlkaS1QeXJlbmVlczEUMBIGA1UEBxMLUGljLWR1LU1p
ZGkxHjAcBgNVBAoTFU9ic2VydmF0ZXVycyBBc3NvY2llczEiMCAGA1UECxMZQXV0
b3JpdGUgQ2VydGlmaWNhdGlvbiBPQTEVMBMGA1UEAxMMRGF2aWQgUm9tZXVmMScw
JQYJKoZIhvcNAQkBFhhEYXZpZC5Sb21ldWZAbGFwb3N0ZS5uZXSCCQDAQ+RIYGDH
HDANBgkqhkiG9w0BAQQFAAOBgQC33loQLcAXFMzNGCGXZrgkZXJvJj30JgLlKgDt
C9hxvE7ma2oqaE6CDJQUwnXoS3e/Esyrv/r++qUS9Dawfrmk2c0SYeOvd0wcTaI/
yvXJwcsJV+D4D3k0eRAOGlfz5oGgREnoPsCWBA/YyukxObYa9NMo3H4s9I2pVOj4
wQQECg==
-----END CERTIFICATE-----
